target datalayout = "e-m:e-p270:32:32-p271:32:32-p272:64:64-i64:64-i128:128-f80:128-n8:16:32:64-S128"
target triple = "x86_64-pc-linux-gnu"

%"struct.gmx::IMDSocket" = type { %struct.sockaddr_in, i32 }
%struct.sockaddr_in = type { i16, i16, %struct.in_addr, [8 x i8] }
%struct.in_addr = type { i32 }

@.str.1 = private unnamed_addr constant [123 x i8] c"generated/home/dtcxzyw/WorkSpace/Projects/compilers/llvm-opt-benchmark/bench/gromacs/gromacs/src/gromacs/imd/imdsocket.cpp\00", align 1

; Function Attrs: inlinehint mustprogress nounwind uwtable
define internal noundef zeroext i16 @_ZL10__bswap_16t(i16 noundef zeroext %0) #8 {
  %2 = alloca i16, align 2
  store i16 %0, ptr %2, align 2, !tbaa !27
  %3 = load i16, ptr %2, align 2, !tbaa !27
  %4 = zext i16 %3 to i32
  %5 = ashr i32 %4, 8
  %6 = and i32 %5, 255
  %7 = load i16, ptr %2, align 2, !tbaa !27
  %8 = zext i16 %7 to i32
  %9 = and i32 %8, 255
  %10 = shl i32 %9, 8
  %11 = or i32 %6, %10
  %12 = trunc i32 %11 to i16
  ret i16 %12
}

; Function Attrs: mustprogress uwtable
define noundef i32 @_ZN3gmx12imdsock_bindEPNS_9IMDSocketEi(ptr noundef %0, i32 noundef %1) #1 {
  %3 = alloca ptr, align 8
  %4 = alloca i32, align 4
  %5 = alloca i32, align 4
  store ptr %0, ptr %3, align 8, !tbaa !4
  store i32 %1, ptr %4, align 4, !tbaa !15
  call void @llvm.lifetime.start.p0(i64 4, ptr %5) #10
  %6 = load ptr, ptr %3, align 8, !tbaa !4
  %7 = getelementptr inbounds nuw %"struct.gmx::IMDSocket", ptr %6, i32 0, i32 0
  call void @llvm.memset.p0.i64(ptr align 4 %7, i8 0, i64 16, i1 false)
  %8 = load ptr, ptr %3, align 8, !tbaa !4
  %9 = getelementptr inbounds nuw %"struct.gmx::IMDSocket", ptr %8, i32 0, i32 0
  %10 = getelementptr inbounds nuw %struct.sockaddr_in, ptr %9, i32 0, i32 0
  store i16 2, ptr %10, align 4, !tbaa !25
  %11 = load i32, ptr %4, align 4, !tbaa !15
  %12 = trunc i32 %11 to i16
  %13 = call noundef zeroext i16 @_ZL10__bswap_16t(i16 noundef zeroext %12)
  %14 = load ptr, ptr %3, align 8, !tbaa !4
  %15 = getelementptr inbounds nuw %"struct.gmx::IMDSocket", ptr %14, i32 0, i32 0
  %16 = getelementptr inbounds nuw %struct.sockaddr_in, ptr %15, i32 0, i32 1
  store i16 %13, ptr %16, align 2, !tbaa !26
  %17 = load ptr, ptr %3, align 8, !tbaa !4
  %18 = getelementptr inbounds nuw %"struct.gmx::IMDSocket", ptr %17, i32 0, i32 1
  %19 = load i32, ptr %18, align 4, !tbaa !9
  %20 = load ptr, ptr %3, align 8, !tbaa !4
  %21 = getelementptr inbounds nuw %"struct.gmx::IMDSocket", ptr %20, i32 0, i32 0
  %22 = call i32 @bind(i32 noundef %19, ptr noundef %21, i32 noundef 16) #10
  store i32 %22, ptr %5, align 4, !tbaa !15
  %23 = load i32, ptr %5, align 4, !tbaa !15
  %24 = icmp ne i32 %23, 0
  br i1 %24, label %25, label %29

25:                                               ; preds = %2
  %26 = call ptr @__errno_location() #11
  %27 = load i32, ptr %26, align 4, !tbaa !15
  %28 = call ptr @strerror(i32 noundef %27) #10
  call void @_ZN3gmxL15print_IMD_errorEPKciPc(ptr noundef @.str.1, i32 noundef 203, ptr noundef %28)
  br label %29

29:                                               ; preds = %25, %2
  %30 = load i32, ptr %5, align 4, !tbaa !15
  call void @llvm.lifetime.end.p0(i64 4, ptr %5) #10
  ret i32 %30
}