; Function Attrs: mustprogress nounwind uwtable
define noundef i32 @_ZN3gmx12imdsock_bindEPNS_9IMDSocketEi(ptr noundef initializes((0, 16)) %0, i32 noundef %1) local_unnamed_addr #8 {
  %3 = getelementptr inbounds nuw i8, ptr %0, i64 4
  tail call void @llvm.memset.p0.i64(ptr noundef nonnull align 4 dereferenceable(12) %3, i8 0, i64 12, i1 false)
  store i16 2, ptr %0, align 4, !tbaa !16
  %4 = trunc i32 %1 to i16
  %rev.i = tail call noundef i16 @llvm.bswap.i16(i16 %4)
  %5 = getelementptr inbounds nuw i8, ptr %0, i64 2
  store i16 %rev.i, ptr %5, align 2, !tbaa !17
  %6 = getelementptr inbounds nuw i8, ptr %0, i64 16
  %7 = load i32, ptr %6, align 4, !tbaa !4
  %8 = tail call i32 @bind(i32 noundef %7, ptr noundef nonnull %0, i32 noundef 16) #14
  %.not = icmp eq i32 %8, 0
  br i1 %.not, label %13, label %9

9:                                                ; preds = %2
  %10 = tail call ptr @__errno_location() #15
  %11 = load i32, ptr %10, align 4, !tbaa !12
  %12 = tail call ptr @strerror(i32 noundef %11) #14
  tail call fastcc void @_ZN3gmxL15print_IMD_errorEPKciPc(i32 noundef 203, ptr noundef %12)
  br label %13

13:                                               ; preds = %9, %2
  ret i32 %8
}